target datalayout = "e-m:e-p270:32:32-p271:32:32-p272:64:64-i64:64-i128:128-f80:128-n8:16:32:64-S128"
target triple = "x86_64-pc-linux-gnu"

%struct.WarpedMotionParams = type { [8 x i32], i16, i16, i16, i16, i8, i8 }
%struct.INTERINTER_COMPOUND_DATA = type { ptr, i8, i8, i8, i8 }
%struct.InterPredParams = type { i32, i32, %struct.WarpedMotionParams, %struct.ConvolveParams, [2 x ptr], i32, i32, i32, i32, %struct.buf_2d, i32, i32, ptr, i32, i32, %struct.INTERINTER_COMPOUND_DATA, i8, i32 }
%struct.ConvolveParams = type { i32, ptr, i32, i32, i32, i32, i32, i32, i32, i32 }
%struct.buf_2d = type { ptr, ptr, i32, i32, i32 }
%struct.SubpelParams = type { i32, i32, i32, i32 }

; Function Attrs: nounwind uwtable
define internal void @revert_scale_extra_bits(ptr noundef %0) #0 {
  %2 = alloca ptr, align 8
  store ptr %0, ptr %2, align 8
  %3 = load ptr, ptr %2, align 8
  %4 = getelementptr inbounds nuw %struct.SubpelParams, ptr %3, i32 0, i32 2
  %5 = load i32, ptr %4, align 4
  %6 = ashr i32 %5, 6
  store i32 %6, ptr %4, align 4
  %7 = load ptr, ptr %2, align 8
  %8 = getelementptr inbounds nuw %struct.SubpelParams, ptr %7, i32 0, i32 3
  %9 = load i32, ptr %8, align 4
  %10 = ashr i32 %9, 6
  store i32 %10, ptr %8, align 4
  %11 = load ptr, ptr %2, align 8
  %12 = getelementptr inbounds nuw %struct.SubpelParams, ptr %11, i32 0, i32 0
  %13 = load i32, ptr %12, align 4
  %14 = ashr i32 %13, 6
  store i32 %14, ptr %12, align 4
  %15 = load ptr, ptr %2, align 8
  %16 = getelementptr inbounds nuw %struct.SubpelParams, ptr %15, i32 0, i32 1
  %17 = load i32, ptr %16, align 4
  %18 = ashr i32 %17, 6
  store i32 %18, ptr %16, align 4
  ret void
}

; Function Attrs: nounwind uwtable
define internal i32 @has_scale(i32 noundef %0, i32 noundef %1) #0 {
  %3 = alloca i32, align 4
  %4 = alloca i32, align 4
  store i32 %0, ptr %3, align 4
  store i32 %1, ptr %4, align 4
  %5 = load i32, ptr %3, align 4
  %6 = icmp ne i32 %5, 1024
  br i1 %6, label %10, label %7

7:                                                ; preds = %2
  %8 = load i32, ptr %4, align 4
  %9 = icmp ne i32 %8, 1024
  br label %10

10:                                               ; preds = %7, %2
  %11 = phi i1 [ true, %2 ], [ %9, %7 ]
  %12 = zext i1 %11 to i32
  ret i32 %12
}

; Function Attrs: nounwind uwtable
define internal void @inter_predictor(ptr noundef %0, i32 noundef %1, ptr noundef %2, i32 noundef %3, ptr noundef %4, i32 noundef %5, i32 noundef %6, ptr noundef %7, ptr noundef %8) #0 {
  %10 = alloca ptr, align 8
  %11 = alloca i32, align 4
  %12 = alloca ptr, align 8
  %13 = alloca i32, align 4
  %14 = alloca ptr, align 8
  %15 = alloca i32, align 4
  %16 = alloca i32, align 4
  %17 = alloca ptr, align 8
  %18 = alloca ptr, align 8
  %19 = alloca i32, align 4
  %20 = alloca %struct.SubpelParams, align 4
  store ptr %0, ptr %10, align 8
  store i32 %1, ptr %11, align 4
  store ptr %2, ptr %12, align 8
  store i32 %3, ptr %13, align 4
  store ptr %4, ptr %14, align 8
  store i32 %5, ptr %15, align 4
  store i32 %6, ptr %16, align 4
  store ptr %7, ptr %17, align 8
  store ptr %8, ptr %18, align 8
  %21 = load ptr, ptr %14, align 8
  %22 = getelementptr inbounds nuw %struct.SubpelParams, ptr %21, i32 0, i32 0
  %23 = load i32, ptr %22, align 4
  %24 = load ptr, ptr %14, align 8
  %25 = getelementptr inbounds nuw %struct.SubpelParams, ptr %24, i32 0, i32 1
  %26 = load i32, ptr %25, align 4
  %27 = call i32 @has_scale(i32 noundef %23, i32 noundef %26)
  store i32 %27, ptr %19, align 4
  %28 = load i32, ptr %19, align 4
  %29 = icmp ne i32 %28, 0
  br i1 %29, label %30, label %51

30:                                               ; preds = %9
  %31 = load ptr, ptr %10, align 8
  %32 = load i32, ptr %11, align 4
  %33 = load ptr, ptr %12, align 8
  %34 = load i32, ptr %13, align 4
  %35 = load i32, ptr %15, align 4
  %36 = load i32, ptr %16, align 4
  %37 = load ptr, ptr %18, align 8
  %38 = load ptr, ptr %14, align 8
  %39 = getelementptr inbounds nuw %struct.SubpelParams, ptr %38, i32 0, i32 2
  %40 = load i32, ptr %39, align 4
  %41 = load ptr, ptr %14, align 8
  %42 = getelementptr inbounds nuw %struct.SubpelParams, ptr %41, i32 0, i32 0
  %43 = load i32, ptr %42, align 4
  %44 = load ptr, ptr %14, align 8
  %45 = getelementptr inbounds nuw %struct.SubpelParams, ptr %44, i32 0, i32 3
  %46 = load i32, ptr %45, align 4
  %47 = load ptr, ptr %14, align 8
  %48 = getelementptr inbounds nuw %struct.SubpelParams, ptr %47, i32 0, i32 1
  %49 = load i32, ptr %48, align 4
  %50 = load ptr, ptr %17, align 8
  call void @av1_convolve_2d_facade(ptr noundef %31, i32 noundef %32, ptr noundef %33, i32 noundef %34, i32 noundef %35, i32 noundef %36, ptr noundef %37, i32 noundef %40, i32 noundef %43, i32 noundef %46, i32 noundef %49, i32 noundef 1, ptr noundef %50)
  br label %69

51:                                               ; preds = %9
  %52 = load ptr, ptr %14, align 8
  call void @llvm.memcpy.p0.p0.i64(ptr align 4 %20, ptr align 4 %52, i64 16, i1 false)
  call void @revert_scale_extra_bits(ptr noundef %20)
  %53 = load ptr, ptr %10, align 8
  %54 = load i32, ptr %11, align 4
  %55 = load ptr, ptr %12, align 8
  %56 = load i32, ptr %13, align 4
  %57 = load i32, ptr %15, align 4
  %58 = load i32, ptr %16, align 4
  %59 = load ptr, ptr %18, align 8
  %60 = getelementptr inbounds nuw %struct.SubpelParams, ptr %20, i32 0, i32 2
  %61 = load i32, ptr %60, align 4
  %62 = getelementptr inbounds nuw %struct.SubpelParams, ptr %20, i32 0, i32 0
  %63 = load i32, ptr %62, align 4
  %64 = getelementptr inbounds nuw %struct.SubpelParams, ptr %20, i32 0, i32 3
  %65 = load i32, ptr %64, align 4
  %66 = getelementptr inbounds nuw %struct.SubpelParams, ptr %20, i32 0, i32 1
  %67 = load i32, ptr %66, align 4
  %68 = load ptr, ptr %17, align 8
  call void @av1_convolve_2d_facade(ptr noundef %53, i32 noundef %54, ptr noundef %55, i32 noundef %56, i32 noundef %57, i32 noundef %58, ptr noundef %59, i32 noundef %61, i32 noundef %63, i32 noundef %65, i32 noundef %67, i32 noundef 0, ptr noundef %68)
  br label %69

69:                                               ; preds = %51, %30
  ret void
}

; Function Attrs: nounwind uwtable
define internal void @highbd_inter_predictor(ptr noundef %0, i32 noundef %1, ptr noundef %2, i32 noundef %3, ptr noundef %4, i32 noundef %5, i32 noundef %6, ptr noundef %7, ptr noundef %8, i32 noundef %9) #0 {
  %11 = alloca ptr, align 8
  %12 = alloca i32, align 4
  %13 = alloca ptr, align 8
  %14 = alloca i32, align 4
  %15 = alloca ptr, align 8
  %16 = alloca i32, align 4
  %17 = alloca i32, align 4
  %18 = alloca ptr, align 8
  %19 = alloca ptr, align 8
  %20 = alloca i32, align 4
  %21 = alloca i32, align 4
  %22 = alloca %struct.SubpelParams, align 4
  store ptr %0, ptr %11, align 8
  store i32 %1, ptr %12, align 4
  store ptr %2, ptr %13, align 8
  store i32 %3, ptr %14, align 4
  store ptr %4, ptr %15, align 8
  store i32 %5, ptr %16, align 4
  store i32 %6, ptr %17, align 4
  store ptr %7, ptr %18, align 8
  store ptr %8, ptr %19, align 8
  store i32 %9, ptr %20, align 4
  %23 = load ptr, ptr %15, align 8
  %24 = getelementptr inbounds nuw %struct.SubpelParams, ptr %23, i32 0, i32 0
  %25 = load i32, ptr %24, align 4
  %26 = load ptr, ptr %15, align 8
  %27 = getelementptr inbounds nuw %struct.SubpelParams, ptr %26, i32 0, i32 1
  %28 = load i32, ptr %27, align 4
  %29 = call i32 @has_scale(i32 noundef %25, i32 noundef %28)
  store i32 %29, ptr %21, align 4
  %30 = load i32, ptr %21, align 4
  %31 = icmp ne i32 %30, 0
  br i1 %31, label %32, label %54

32:                                               ; preds = %10
  %33 = load ptr, ptr %11, align 8
  %34 = load i32, ptr %12, align 4
  %35 = load ptr, ptr %13, align 8
  %36 = load i32, ptr %14, align 4
  %37 = load i32, ptr %16, align 4
  %38 = load i32, ptr %17, align 4
  %39 = load ptr, ptr %19, align 8
  %40 = load ptr, ptr %15, align 8
  %41 = getelementptr inbounds nuw %struct.SubpelParams, ptr %40, i32 0, i32 2
  %42 = load i32, ptr %41, align 4
  %43 = load ptr, ptr %15, align 8
  %44 = getelementptr inbounds nuw %struct.SubpelParams, ptr %43, i32 0, i32 0
  %45 = load i32, ptr %44, align 4
  %46 = load ptr, ptr %15, align 8
  %47 = getelementptr inbounds nuw %struct.SubpelParams, ptr %46, i32 0, i32 3
  %48 = load i32, ptr %47, align 4
  %49 = load ptr, ptr %15, align 8
  %50 = getelementptr inbounds nuw %struct.SubpelParams, ptr %49, i32 0, i32 1
  %51 = load i32, ptr %50, align 4
  %52 = load ptr, ptr %18, align 8
  %53 = load i32, ptr %20, align 4
  call void @av1_highbd_convolve_2d_facade(ptr noundef %33, i32 noundef %34, ptr noundef %35, i32 noundef %36, i32 noundef %37, i32 noundef %38, ptr noundef %39, i32 noundef %42, i32 noundef %45, i32 noundef %48, i32 noundef %51, i32 noundef 1, ptr noundef %52, i32 noundef %53)
  br label %73

54:                                               ; preds = %10
  %55 = load ptr, ptr %15, align 8
  call void @llvm.memcpy.p0.p0.i64(ptr align 4 %22, ptr align 4 %55, i64 16, i1 false)
  call void @revert_scale_extra_bits(ptr noundef %22)
  %56 = load ptr, ptr %11, align 8
  %57 = load i32, ptr %12, align 4
  %58 = load ptr, ptr %13, align 8
  %59 = load i32, ptr %14, align 4
  %60 = load i32, ptr %16, align 4
  %61 = load i32, ptr %17, align 4
  %62 = load ptr, ptr %19, align 8
  %63 = getelementptr inbounds nuw %struct.SubpelParams, ptr %22, i32 0, i32 2
  %64 = load i32, ptr %63, align 4
  %65 = getelementptr inbounds nuw %struct.SubpelParams, ptr %22, i32 0, i32 0
  %66 = load i32, ptr %65, align 4
  %67 = getelementptr inbounds nuw %struct.SubpelParams, ptr %22, i32 0, i32 3
  %68 = load i32, ptr %67, align 4
  %69 = getelementptr inbounds nuw %struct.SubpelParams, ptr %22, i32 0, i32 1
  %70 = load i32, ptr %69, align 4
  %71 = load ptr, ptr %18, align 8
  %72 = load i32, ptr %20, align 4
  call void @av1_highbd_convolve_2d_facade(ptr noundef %56, i32 noundef %57, ptr noundef %58, i32 noundef %59, i32 noundef %60, i32 noundef %61, ptr noundef %62, i32 noundef %64, i32 noundef %66, i32 noundef %68, i32 noundef %70, i32 noundef 0, ptr noundef %71, i32 noundef %72)
  br label %73

73:                                               ; preds = %54, %32
  ret void
}

; Function Attrs: nounwind uwtable
define hidden void @av1_make_inter_predictor(ptr noundef %0, i32 noundef %1, ptr noundef %2, i32 noundef %3, ptr noundef %4, ptr noundef %5) #0 {
  %7 = alloca ptr, align 8
  %8 = alloca i32, align 4
  %9 = alloca ptr, align 8
  %10 = alloca i32, align 4
  %11 = alloca ptr, align 8
  %12 = alloca ptr, align 8
  store ptr %0, ptr %7, align 8
  store i32 %1, ptr %8, align 4
  store ptr %2, ptr %9, align 8
  store i32 %3, ptr %10, align 4
  store ptr %4, ptr %11, align 8
  store ptr %5, ptr %12, align 8
  %13 = load ptr, ptr %11, align 8
  %14 = getelementptr inbounds nuw %struct.InterPredParams, ptr %13, i32 0, i32 0
  %15 = load i32, ptr %14, align 8
  %16 = icmp eq i32 %15, 0
  br i1 %16, label %17, label %60

17:                                               ; preds = %6
  %18 = load ptr, ptr %11, align 8
  %19 = getelementptr inbounds nuw %struct.InterPredParams, ptr %18, i32 0, i32 14
  %20 = load i32, ptr %19, align 4
  %21 = icmp ne i32 %20, 0
  br i1 %21, label %22, label %42

22:                                               ; preds = %17
  %23 = load ptr, ptr %7, align 8
  %24 = load i32, ptr %8, align 4
  %25 = load ptr, ptr %9, align 8
  %26 = load i32, ptr %10, align 4
  %27 = load ptr, ptr %12, align 8
  %28 = load ptr, ptr %11, align 8
  %29 = getelementptr inbounds nuw %struct.InterPredParams, ptr %28, i32 0, i32 5
  %30 = load i32, ptr %29, align 8
  %31 = load ptr, ptr %11, align 8
  %32 = getelementptr inbounds nuw %struct.InterPredParams, ptr %31, i32 0, i32 6
  %33 = load i32, ptr %32, align 4
  %34 = load ptr, ptr %11, align 8
  %35 = getelementptr inbounds nuw %struct.InterPredParams, ptr %34, i32 0, i32 3
  %36 = load ptr, ptr %11, align 8
  %37 = getelementptr inbounds nuw %struct.InterPredParams, ptr %36, i32 0, i32 4
  %38 = getelementptr inbounds [2 x ptr], ptr %37, i64 0, i64 0
  %39 = load ptr, ptr %11, align 8
  %40 = getelementptr inbounds nuw %struct.InterPredParams, ptr %39, i32 0, i32 13
  %41 = load i32, ptr %40, align 8
  call void @highbd_inter_predictor(ptr noundef %23, i32 noundef %24, ptr noundef %25, i32 noundef %26, ptr noundef %27, i32 noundef %30, i32 noundef %33, ptr noundef %35, ptr noundef %38, i32 noundef %41)
  br label %59

42:                                               ; preds = %17
  %43 = load ptr, ptr %7, align 8
  %44 = load i32, ptr %8, align 4
  %45 = load ptr, ptr %9, align 8
  %46 = load i32, ptr %10, align 4
  %47 = load ptr, ptr %12, align 8
  %48 = load ptr, ptr %11, align 8
  %49 = getelementptr inbounds nuw %struct.InterPredParams, ptr %48, i32 0, i32 5
  %50 = load i32, ptr %49, align 8
  %51 = load ptr, ptr %11, align 8
  %52 = getelementptr inbounds nuw %struct.InterPredParams, ptr %51, i32 0, i32 6
  %53 = load i32, ptr %52, align 4
  %54 = load ptr, ptr %11, align 8
  %55 = getelementptr inbounds nuw %struct.InterPredParams, ptr %54, i32 0, i32 3
  %56 = load ptr, ptr %11, align 8
  %57 = getelementptr inbounds nuw %struct.InterPredParams, ptr %56, i32 0, i32 4
  %58 = getelementptr inbounds [2 x ptr], ptr %57, i64 0, i64 0
  call void @inter_predictor(ptr noundef %43, i32 noundef %44, ptr noundef %45, i32 noundef %46, ptr noundef %47, i32 noundef %50, i32 noundef %53, ptr noundef %55, ptr noundef %58)
  br label %59

59:                                               ; preds = %42, %22
  br label %113

60:                                               ; preds = %6
  %61 = load ptr, ptr %11, align 8
  %62 = getelementptr inbounds nuw %struct.InterPredParams, ptr %61, i32 0, i32 0
  %63 = load i32, ptr %62, align 8
  %64 = icmp eq i32 %63, 1
  br i1 %64, label %65, label %112

65:                                               ; preds = %60
  %66 = load ptr, ptr %11, align 8
  %67 = getelementptr inbounds nuw %struct.InterPredParams, ptr %66, i32 0, i32 2
  %68 = load ptr, ptr %11, align 8
  %69 = getelementptr inbounds nuw %struct.InterPredParams, ptr %68, i32 0, i32 14
  %70 = load i32, ptr %69, align 4
  %71 = load ptr, ptr %11, align 8
  %72 = getelementptr inbounds nuw %struct.InterPredParams, ptr %71, i32 0, i32 13
  %73 = load i32, ptr %72, align 8
  %74 = load ptr, ptr %11, align 8
  %75 = getelementptr inbounds nuw %struct.InterPredParams, ptr %74, i32 0, i32 9
  %76 = getelementptr inbounds nuw %struct.buf_2d, ptr %75, i32 0, i32 1
  %77 = load ptr, ptr %76, align 8
  %78 = load ptr, ptr %11, align 8
  %79 = getelementptr inbounds nuw %struct.InterPredParams, ptr %78, i32 0, i32 9
  %80 = getelementptr inbounds nuw %struct.buf_2d, ptr %79, i32 0, i32 2
  %81 = load i32, ptr %80, align 8
  %82 = load ptr, ptr %11, align 8
  %83 = getelementptr inbounds nuw %struct.InterPredParams, ptr %82, i32 0, i32 9
  %84 = getelementptr inbounds nuw %struct.buf_2d, ptr %83, i32 0, i32 3
  %85 = load i32, ptr %84, align 4
  %86 = load ptr, ptr %11, align 8
  %87 = getelementptr inbounds nuw %struct.InterPredParams, ptr %86, i32 0, i32 9
  %88 = getelementptr inbounds nuw %struct.buf_2d, ptr %87, i32 0, i32 4
  %89 = load i32, ptr %88, align 8
  %90 = load ptr, ptr %9, align 8
  %91 = load ptr, ptr %11, align 8
  %92 = getelementptr inbounds nuw %struct.InterPredParams, ptr %91, i32 0, i32 8
  %93 = load i32, ptr %92, align 4
  %94 = load ptr, ptr %11, align 8
  %95 = getelementptr inbounds nuw %struct.InterPredParams, ptr %94, i32 0, i32 7
  %96 = load i32, ptr %95, align 8
  %97 = load ptr, ptr %11, align 8
  %98 = getelementptr inbounds nuw %struct.InterPredParams, ptr %97, i32 0, i32 5
  %99 = load i32, ptr %98, align 8
  %100 = load ptr, ptr %11, align 8
  %101 = getelementptr inbounds nuw %struct.InterPredParams, ptr %100, i32 0, i32 6
  %102 = load i32, ptr %101, align 4
  %103 = load i32, ptr %10, align 4
  %104 = load ptr, ptr %11, align 8
  %105 = getelementptr inbounds nuw %struct.InterPredParams, ptr %104, i32 0, i32 10
  %106 = load i32, ptr %105, align 8
  %107 = load ptr, ptr %11, align 8
  %108 = getelementptr inbounds nuw %struct.InterPredParams, ptr %107, i32 0, i32 11
  %109 = load i32, ptr %108, align 4
  %110 = load ptr, ptr %11, align 8
  %111 = getelementptr inbounds nuw %struct.InterPredParams, ptr %110, i32 0, i32 3
  call void @av1_warp_plane(ptr noundef %67, i32 noundef %70, i32 noundef %73, ptr noundef %77, i32 noundef %81, i32 noundef %85, i32 noundef %89, ptr noundef %90, i32 noundef %93, i32 noundef %96, i32 noundef %99, i32 noundef %102, i32 noundef %103, i32 noundef %106, i32 noundef %109, ptr noundef %111)
  br label %112

112:                                              ; preds = %65, %60
  br label %113

113:                                              ; preds = %112, %59
  ret void
}