; Function Attrs: nounwind uwtable
define hidden void @av1_make_inter_predictor(ptr noundef %0, i32 noundef %1, ptr noundef %2, i32 noundef %3, ptr noundef %4, ptr nocapture noundef readonly %5) local_unnamed_addr #4 {
  %7 = load i32, ptr %4, align 8
  switch i32 %7, label %highbd_inter_predictor.exit [
    i32 0, label %8
    i32 1, label %39
  ]

8:                                                ; preds = %6
  %9 = getelementptr inbounds nuw i8, ptr %4, i64 188
  %10 = load i32, ptr %9, align 4
  %.not = icmp eq i32 %10, 0
  %11 = getelementptr inbounds nuw i8, ptr %4, i64 120
  %12 = load i32, ptr %11, align 8
  %13 = getelementptr inbounds nuw i8, ptr %4, i64 124
  %14 = load i32, ptr %13, align 4
  %15 = getelementptr inbounds nuw i8, ptr %4, i64 56
  %16 = getelementptr inbounds nuw i8, ptr %4, i64 104
  br i1 %.not, label %29, label %17

17:                                               ; preds = %8
  %18 = getelementptr inbounds nuw i8, ptr %4, i64 184
  %19 = load i32, ptr %18, align 8
  %20 = load i32, ptr %5, align 4
  %21 = getelementptr inbounds nuw i8, ptr %5, i64 4
  %22 = load i32, ptr %21, align 4
  %23 = icmp eq i32 %20, 1024
  %24 = icmp eq i32 %22, 1024
  %.not31.i = and i1 %23, %24
  %.sroa.7.0..sroa_idx.i = getelementptr inbounds i8, ptr %5, i64 8
  %.sroa.7.0.copyload.i = load i32, ptr %.sroa.7.0..sroa_idx.i, align 4
  %.sroa.10.0..sroa_idx.i = getelementptr inbounds i8, ptr %5, i64 12
  %.sroa.10.0.copyload.i = load i32, ptr %.sroa.10.0..sroa_idx.i, align 4
  br i1 %.not31.i, label %26, label %25

25:                                               ; preds = %17
  tail call void @av1_highbd_convolve_2d_facade(ptr noundef %0, i32 noundef %1, ptr noundef %2, i32 noundef %3, i32 noundef %12, i32 noundef %14, ptr noundef nonnull %16, i32 noundef %.sroa.7.0.copyload.i, i32 noundef %20, i32 noundef %.sroa.10.0.copyload.i, i32 noundef %22, i32 noundef 1, ptr noundef nonnull %15, i32 noundef %19) #18
  br label %highbd_inter_predictor.exit

26:                                               ; preds = %17
  %27 = ashr i32 %.sroa.7.0.copyload.i, 6
  %28 = ashr i32 %.sroa.10.0.copyload.i, 6
  tail call void @av1_highbd_convolve_2d_facade(ptr noundef %0, i32 noundef %1, ptr noundef %2, i32 noundef %3, i32 noundef %12, i32 noundef %14, ptr noundef nonnull %16, i32 noundef %27, i32 noundef 16, i32 noundef %28, i32 noundef 16, i32 noundef 0, ptr noundef nonnull %15, i32 noundef %19) #18
  br label %highbd_inter_predictor.exit

29:                                               ; preds = %8
  %30 = load i32, ptr %5, align 4
  %31 = getelementptr inbounds nuw i8, ptr %5, i64 4
  %32 = load i32, ptr %31, align 4
  %33 = icmp eq i32 %30, 1024
  %34 = icmp eq i32 %32, 1024
  %.not29.i = and i1 %33, %34
  %.sroa.7.0..sroa_idx.i37 = getelementptr inbounds i8, ptr %5, i64 8
  %.sroa.7.0.copyload.i38 = load i32, ptr %.sroa.7.0..sroa_idx.i37, align 4
  %.sroa.10.0..sroa_idx.i39 = getelementptr inbounds i8, ptr %5, i64 12
  %.sroa.10.0.copyload.i40 = load i32, ptr %.sroa.10.0..sroa_idx.i39, align 4
  br i1 %.not29.i, label %36, label %35

35:                                               ; preds = %29
  tail call void @av1_convolve_2d_facade(ptr noundef %0, i32 noundef %1, ptr noundef %2, i32 noundef %3, i32 noundef %12, i32 noundef %14, ptr noundef nonnull %16, i32 noundef %.sroa.7.0.copyload.i38, i32 noundef %30, i32 noundef %.sroa.10.0.copyload.i40, i32 noundef %32, i32 noundef 1, ptr noundef nonnull %15) #18
  br label %highbd_inter_predictor.exit

36:                                               ; preds = %29
  %37 = ashr i32 %.sroa.7.0.copyload.i38, 6
  %38 = ashr i32 %.sroa.10.0.copyload.i40, 6
  tail call void @av1_convolve_2d_facade(ptr noundef %0, i32 noundef %1, ptr noundef %2, i32 noundef %3, i32 noundef %12, i32 noundef %14, ptr noundef nonnull %16, i32 noundef %37, i32 noundef 16, i32 noundef %38, i32 noundef 16, i32 noundef 0, ptr noundef nonnull %15) #18
  br label %highbd_inter_predictor.exit

39:                                               ; preds = %6
  %40 = getelementptr inbounds nuw i8, ptr %4, i64 8
  %41 = getelementptr inbounds nuw i8, ptr %4, i64 188
  %42 = load i32, ptr %41, align 4
  %43 = getelementptr inbounds nuw i8, ptr %4, i64 184
  %44 = load i32, ptr %43, align 8
  %45 = getelementptr inbounds i8, ptr %4, i64 144
  %46 = load ptr, ptr %45, align 8
  %47 = getelementptr inbounds i8, ptr %4, i64 152
  %48 = load i32, ptr %47, align 8
  %49 = getelementptr inbounds i8, ptr %4, i64 156
  %50 = load i32, ptr %49, align 4
  %51 = getelementptr inbounds i8, ptr %4, i64 160
  %52 = load i32, ptr %51, align 8
  %53 = getelementptr inbounds nuw i8, ptr %4, i64 132
  %54 = load i32, ptr %53, align 4
  %55 = getelementptr inbounds nuw i8, ptr %4, i64 128
  %56 = load i32, ptr %55, align 8
  %57 = getelementptr inbounds nuw i8, ptr %4, i64 120
  %58 = load i32, ptr %57, align 8
  %59 = getelementptr inbounds nuw i8, ptr %4, i64 124
  %60 = load i32, ptr %59, align 4
  %61 = getelementptr inbounds nuw i8, ptr %4, i64 168
  %62 = load i32, ptr %61, align 8
  %63 = getelementptr inbounds nuw i8, ptr %4, i64 172
  %64 = load i32, ptr %63, align 4
  %65 = getelementptr inbounds nuw i8, ptr %4, i64 56
  tail call void @av1_warp_plane(ptr noundef nonnull %40, i32 noundef %42, i32 noundef %44, ptr noundef %46, i32 noundef %48, i32 noundef %50, i32 noundef %52, ptr noundef %2, i32 noundef %54, i32 noundef %56, i32 noundef %58, i32 noundef %60, i32 noundef %3, i32 noundef %62, i32 noundef %64, ptr noundef nonnull %65) #18
  br label %highbd_inter_predictor.exit

highbd_inter_predictor.exit:                      ; preds = %36, %35, %26, %25, %6, %39
  ret void
}